target datalayout = "e-m:e-p270:32:32-p271:32:32-p272:64:64-i64:64-i128:128-f80:128-n8:16:32:64-S128"
target triple = "x86_64-pc-linux-gnu"

%"class.sat::literal" = type { i32 }
%"class.sls::context" = type <{ ptr, ptr, %class.scoped_ptr_vector, %class.indexed_uint_set, %class.indexed_uint_set, %class.ref_vector, %class.svector, %class.params_ref, %class.vector.3, %class.svector.4, %class.svector.4, %class.indexed_uint_set, %class.random_gen, i8, i8, i8, i8, %class.ref_vector, %class.ref_vector, %class.ptr_vector.1, %"struct.sls::context::greater_depth", %"struct.sls::context::less_depth", %class.heap, %class.heap.8, %class.uint_set, %class.ref_vector, %"struct.sls::context::stats", [4 x i8], %class.ref_vector, i8, [7 x i8] }>
%class.scoped_ptr_vector = type { %class.ptr_vector }
%class.ptr_vector = type { %class.vector }
%class.vector = type { ptr }
%class.svector = type { %class.vector.0 }
%class.vector.0 = type { ptr }
%class.params_ref = type { ptr }
%class.vector.3 = type { ptr }
%class.svector.4 = type { %class.vector.5 }
%class.vector.5 = type { ptr }
%class.indexed_uint_set = type { i32, %class.svector, %class.svector }
%class.random_gen = type { i32 }
%class.ptr_vector.1 = type { %class.vector.2 }
%class.vector.2 = type { ptr }
%"struct.sls::context::greater_depth" = type { ptr }
%"struct.sls::context::less_depth" = type { ptr }
%class.heap = type { %"struct.sls::context::greater_depth", %class.svector.6, %class.svector.6 }
%class.svector.6 = type { %class.vector.7 }
%class.vector.7 = type { ptr }
%class.heap.8 = type { %"struct.sls::context::less_depth", %class.svector.6, %class.svector.6 }
%class.uint_set = type { %class.svector }
%"struct.sls::context::stats" = type { i32, i32, i32 }
%class.ref_vector = type { %class.ref_vector_core }
%class.ref_vector_core = type { %class.ref_manager_wrapper, %class.ptr_vector.1 }
%class.ref_manager_wrapper = type { ptr }

; Function Attrs: mustprogress nounwind uwtable
define linkonce_odr hidden noundef i32 @_ZNK6vectorIP4exprLb0EjE4sizeEv(ptr noundef nonnull align 8 dereferenceable(8) %0) #5 comdat align 2 {
  %2 = alloca i32, align 4
  %3 = alloca ptr, align 8
  store ptr %0, ptr %3, align 8, !tbaa !95
  %4 = load ptr, ptr %3, align 8
  %5 = getelementptr inbounds nuw %class.vector.2, ptr %4, i32 0, i32 0
  %6 = load ptr, ptr %5, align 8, !tbaa !195
  %7 = icmp eq ptr %6, null
  br i1 %7, label %8, label %9

8:                                                ; preds = %1
  store i32 0, ptr %2, align 4
  br label %14

9:                                                ; preds = %1
  %10 = getelementptr inbounds nuw %class.vector.2, ptr %4, i32 0, i32 0
  %11 = load ptr, ptr %10, align 8, !tbaa !195
  %12 = getelementptr inbounds i32, ptr %11, i64 -1
  %13 = load i32, ptr %12, align 4, !tbaa !74
  store i32 %13, ptr %2, align 4
  br label %14

14:                                               ; preds = %9, %8
  %15 = load i32, ptr %2, align 4
  ret i32 %15
}

; Function Attrs: mustprogress nounwind uwtable
define linkonce_odr hidden noundef nonnull align 8 dereferenceable(8) ptr @_ZNK6vectorIPN3sls6pluginELb0EjEixEj(ptr noundef nonnull align 8 dereferenceable(8) %0, i32 noundef %1) #5 comdat align 2 {
  %3 = alloca ptr, align 8
  %4 = alloca i32, align 4
  store ptr %0, ptr %3, align 8, !tbaa !322
  store i32 %1, ptr %4, align 4, !tbaa !74
  %5 = load ptr, ptr %3, align 8
  %6 = getelementptr inbounds nuw %class.vector, ptr %5, i32 0, i32 0
  %7 = load ptr, ptr %6, align 8, !tbaa !324
  %8 = load i32, ptr %4, align 4, !tbaa !74
  %9 = zext i32 %8 to i64
  %10 = getelementptr inbounds nuw ptr, ptr %7, i64 %9
  ret ptr %10
}

; Function Attrs: mustprogress nounwind uwtable
define linkonce_odr hidden noundef nonnull align 8 dereferenceable(8) ptr @_ZNK6vectorIP4exprLb0EjE3getEjRKS1_(ptr noundef nonnull align 8 dereferenceable(8) %0, i32 noundef %1, ptr noundef nonnull align 8 dereferenceable(8) %2) #5 comdat align 2 {
  %4 = alloca ptr, align 8
  %5 = alloca ptr, align 8
  %6 = alloca i32, align 4
  %7 = alloca ptr, align 8
  store ptr %0, ptr %5, align 8, !tbaa !95
  store i32 %1, ptr %6, align 4, !tbaa !74
  store ptr %2, ptr %7, align 8, !tbaa !173
  %8 = load ptr, ptr %5, align 8
  %9 = load i32, ptr %6, align 4, !tbaa !74
  %10 = call noundef i32 @_ZNK6vectorIP4exprLb0EjE4sizeEv(ptr noundef nonnull align 8 dereferenceable(8) %8)
  %11 = icmp uge i32 %9, %10
  br i1 %11, label %12, label %14

12:                                               ; preds = %3
  %13 = load ptr, ptr %7, align 8, !tbaa !173
  store ptr %13, ptr %4, align 8
  br label %20

14:                                               ; preds = %3
  %15 = getelementptr inbounds nuw %class.vector.2, ptr %8, i32 0, i32 0
  %16 = load ptr, ptr %15, align 8, !tbaa !195
  %17 = load i32, ptr %6, align 4, !tbaa !74
  %18 = zext i32 %17 to i64
  %19 = getelementptr inbounds nuw ptr, ptr %16, i64 %18
  store ptr %19, ptr %4, align 8
  br label %20

20:                                               ; preds = %14, %12
  %21 = load ptr, ptr %4, align 8
  ret ptr %21
}

; Function Attrs: mustprogress uwtable
define linkonce_odr hidden noundef ptr @_ZNK17scoped_ptr_vectorIN3sls6pluginEEixEj(ptr noundef nonnull align 8 dereferenceable(8) %0, i32 noundef %1) #4 comdat align 2 {
  %3 = alloca ptr, align 8
  %4 = alloca i32, align 4
  store ptr %0, ptr %3, align 8, !tbaa !55
  store i32 %1, ptr %4, align 4, !tbaa !74
  %5 = load ptr, ptr %3, align 8
  %6 = getelementptr inbounds nuw %class.scoped_ptr_vector, ptr %5, i32 0, i32 0
  %7 = load i32, ptr %4, align 4, !tbaa !74
  %8 = call noundef nonnull align 8 dereferenceable(8) ptr @_ZNK6vectorIPN3sls6pluginELb0EjEixEj(ptr noundef nonnull align 8 dereferenceable(8) %6, i32 noundef %7)
  %9 = load ptr, ptr %8, align 8, !tbaa !3
  ret ptr %9
}

; Function Attrs: mustprogress nounwind uwtable
define linkonce_odr hidden noundef i32 @_ZNK6vectorIPN3sls6pluginELb0EjE4sizeEv(ptr noundef nonnull align 8 dereferenceable(8) %0) #5 comdat align 2 {
  %2 = alloca i32, align 4
  %3 = alloca ptr, align 8
  store ptr %0, ptr %3, align 8, !tbaa !322
  %4 = load ptr, ptr %3, align 8
  %5 = getelementptr inbounds nuw %class.vector, ptr %4, i32 0, i32 0
  %6 = load ptr, ptr %5, align 8, !tbaa !324
  %7 = icmp eq ptr %6, null
  br i1 %7, label %8, label %9

8:                                                ; preds = %1
  store i32 0, ptr %2, align 4
  br label %14

9:                                                ; preds = %1
  %10 = getelementptr inbounds nuw %class.vector, ptr %4, i32 0, i32 0
  %11 = load ptr, ptr %10, align 8, !tbaa !324
  %12 = getelementptr inbounds i32, ptr %11, i64 -1
  %13 = load i32, ptr %12, align 4, !tbaa !74
  store i32 %13, ptr %2, align 4
  br label %14

14:                                               ; preds = %9, %8
  %15 = load i32, ptr %2, align 4
  ret i32 %15
}

; Function Attrs: mustprogress uwtable
define linkonce_odr hidden noundef ptr @_ZNK15ref_vector_coreI4expr19ref_manager_wrapperIS0_11ast_managerEE3getEjPS0_(ptr noundef nonnull align 8 dereferenceable(16) %0, i32 noundef %1, ptr noundef %2) #4 comdat align 2 {
  %4 = alloca ptr, align 8
  %5 = alloca i32, align 4
  %6 = alloca ptr, align 8
  store ptr %0, ptr %4, align 8, !tbaa !93
  store i32 %1, ptr %5, align 4, !tbaa !74
  store ptr %2, ptr %6, align 8, !tbaa !143
  %7 = load ptr, ptr %4, align 8
  %8 = getelementptr inbounds nuw %class.ref_vector_core, ptr %7, i32 0, i32 1
  %9 = load i32, ptr %5, align 4, !tbaa !74
  %10 = call noundef nonnull align 8 dereferenceable(8) ptr @_ZNK6vectorIP4exprLb0EjE3getEjRKS1_(ptr noundef nonnull align 8 dereferenceable(8) %8, i32 noundef %9, ptr noundef nonnull align 8 dereferenceable(8) %6)
  %11 = load ptr, ptr %10, align 8, !tbaa !143
  ret ptr %11
}

; Function Attrs: mustprogress uwtable
define linkonce_odr hidden noundef ptr @_ZNK17scoped_ptr_vectorIN3sls6pluginEE3getEjPS1_(ptr noundef nonnull align 8 dereferenceable(8) %0, i32 noundef %1, ptr noundef %2) #4 comdat align 2 {
  %4 = alloca ptr, align 8
  %5 = alloca i32, align 4
  %6 = alloca ptr, align 8
  store ptr %0, ptr %4, align 8, !tbaa !55
  store i32 %1, ptr %5, align 4, !tbaa !74
  store ptr %2, ptr %6, align 8, !tbaa !3
  %7 = load ptr, ptr %4, align 8
  %8 = load i32, ptr %5, align 4, !tbaa !74
  %9 = icmp ule i32 0, %8
  br i1 %9, label %10, label %18

10:                                               ; preds = %3
  %11 = load i32, ptr %5, align 4, !tbaa !74
  %12 = getelementptr inbounds nuw %class.scoped_ptr_vector, ptr %7, i32 0, i32 0
  %13 = call noundef i32 @_ZNK6vectorIPN3sls6pluginELb0EjE4sizeEv(ptr noundef nonnull align 8 dereferenceable(8) %12)
  %14 = icmp ult i32 %11, %13
  br i1 %14, label %15, label %18

15:                                               ; preds = %10
  %16 = load i32, ptr %5, align 4, !tbaa !74
  %17 = call noundef ptr @_ZNK17scoped_ptr_vectorIN3sls6pluginEEixEj(ptr noundef nonnull align 8 dereferenceable(8) %7, i32 noundef %16)
  br label %20

18:                                               ; preds = %10, %3
  %19 = load ptr, ptr %6, align 8, !tbaa !3
  br label %20

20:                                               ; preds = %18, %15
  %21 = phi ptr [ %17, %15 ], [ %19, %18 ]
  ret ptr %21
}

; Function Attrs: mustprogress nounwind uwtable
define linkonce_odr hidden void @_ZN3sat7literalC2Ejb(ptr noundef nonnull align 4 dereferenceable(4) %0, i32 noundef %1, i1 noundef zeroext %2) unnamed_addr #5 comdat align 2 {
  %4 = alloca ptr, align 8
  %5 = alloca i32, align 4
  %6 = alloca i8, align 1
  store ptr %0, ptr %4, align 8, !tbaa !169
  store i32 %1, ptr %5, align 4, !tbaa !74
  %7 = zext i1 %2 to i8
  store i8 %7, ptr %6, align 1, !tbaa !172
  %8 = load ptr, ptr %4, align 8
  %9 = getelementptr inbounds nuw %"class.sat::literal", ptr %8, i32 0, i32 0
  %10 = load i32, ptr %5, align 4, !tbaa !74
  %11 = shl i32 %10, 1
  %12 = load i8, ptr %6, align 1, !tbaa !172, !range !158, !noundef !159
  %13 = trunc i8 %12 to i1
  %14 = zext i1 %13 to i32
  %15 = add i32 %11, %14
  store i32 %15, ptr %9, align 4, !tbaa !223
  ret void
}

; Function Attrs: mustprogress uwtable
define linkonce_odr hidden noundef zeroext i1 @_ZNK3sls7context7is_trueEj(ptr noundef nonnull align 8 dereferenceable(321) %0, i32 noundef %1) #4 comdat align 2 {
  %3 = alloca ptr, align 8
  %4 = alloca i32, align 4
  %5 = alloca %"class.sat::literal", align 4
  store ptr %0, ptr %3, align 8, !tbaa !8
  store i32 %1, ptr %4, align 4, !tbaa !74
  %6 = load ptr, ptr %3, align 8
  %7 = getelementptr inbounds nuw %"class.sls::context", ptr %6, i32 0, i32 1
  %8 = load ptr, ptr %7, align 8, !tbaa !164
  %9 = load i32, ptr %4, align 4, !tbaa !74
  call void @_ZN3sat7literalC2Ejb(ptr noundef nonnull align 4 dereferenceable(4) %5, i32 noundef %9, i1 noundef zeroext false)
  %10 = getelementptr inbounds nuw %"class.sat::literal", ptr %5, i32 0, i32 0
  %11 = load i32, ptr %10, align 4
  %12 = load ptr, ptr %8, align 8, !tbaa !10
  %13 = getelementptr inbounds ptr, ptr %12, i64 10
  %14 = load ptr, ptr %13, align 8
  %15 = call noundef zeroext i1 %14(ptr noundef nonnull align 8 dereferenceable(8) %8, i32 %11)
  ret i1 %15
}

; Function Attrs: mustprogress uwtable
define linkonce_odr hidden noundef ptr @_ZN3sls7context4atomEj(ptr noundef nonnull align 8 dereferenceable(321) %0, i32 noundef %1) #4 comdat align 2 {
  %3 = alloca ptr, align 8
  %4 = alloca i32, align 4
  store ptr %0, ptr %3, align 8, !tbaa !8
  store i32 %1, ptr %4, align 4, !tbaa !74
  %5 = load ptr, ptr %3, align 8
  %6 = getelementptr inbounds nuw %"class.sls::context", ptr %5, i32 0, i32 5
  %7 = load i32, ptr %4, align 4, !tbaa !74
  %8 = call noundef ptr @_ZNK15ref_vector_coreI4expr19ref_manager_wrapperIS0_11ast_managerEE3getEjPS0_(ptr noundef nonnull align 8 dereferenceable(16) %6, i32 noundef %7, ptr noundef null)
  ret ptr %8
}

; Function Attrs: mustprogress uwtable
define hidden void @_ZN3sls7context15repair_literalsEv(ptr noundef nonnull align 8 dereferenceable(321) %0) #4 align 2 {
  %2 = alloca ptr, align 8
  %3 = alloca i32, align 4
  %4 = alloca i32, align 4
  %5 = alloca ptr, align 8
  %6 = alloca %"class.sat::literal", align 4
  %7 = alloca ptr, align 8
  %8 = alloca %"class.sat::literal", align 4
  store ptr %0, ptr %2, align 8, !tbaa !8
  %9 = load ptr, ptr %2, align 8
  call void @llvm.lifetime.start.p0(i64 4, ptr %3) #3
  store i32 0, ptr %3, align 4, !tbaa !74
  br label %10

10:                                               ; preds = %55, %1
  %11 = load i32, ptr %3, align 4, !tbaa !74
  %12 = getelementptr inbounds nuw %"class.sls::context", ptr %9, i32 0, i32 1
  %13 = load ptr, ptr %12, align 8, !tbaa !164
  %14 = load ptr, ptr %13, align 8, !tbaa !10
  %15 = getelementptr inbounds ptr, ptr %14, i64 11
  %16 = load ptr, ptr %15, align 8
  %17 = call noundef i32 %16(ptr noundef nonnull align 8 dereferenceable(8) %13)
  %18 = icmp ult i32 %11, %17
  br i1 %18, label %19, label %24

19:                                               ; preds = %10
  %20 = getelementptr inbounds nuw %"class.sls::context", ptr %9, i32 0, i32 14
  %21 = load i8, ptr %20, align 1, !tbaa !52, !range !158, !noundef !159
  %22 = trunc i8 %21 to i1
  %23 = xor i1 %22, true
  br label %24

24:                                               ; preds = %19, %10
  %25 = phi i1 [ false, %10 ], [ %23, %19 ]
  br i1 %25, label %27, label %26

26:                                               ; preds = %24
  store i32 2, ptr %4, align 4
  call void @llvm.lifetime.end.p0(i64 4, ptr %3) #3
  br label %58

27:                                               ; preds = %24
  call void @llvm.lifetime.start.p0(i64 8, ptr %5) #3
  %28 = load i32, ptr %3, align 4, !tbaa !74
  %29 = call noundef ptr @_ZN3sls7context4atomEj(ptr noundef nonnull align 8 dereferenceable(321) %9, i32 noundef %28)
  store ptr %29, ptr %5, align 8, !tbaa !143
  %30 = load ptr, ptr %5, align 8, !tbaa !143
  %31 = icmp ne ptr %30, null
  br i1 %31, label %33, label %32

32:                                               ; preds = %27
  store i32 4, ptr %4, align 4
  br label %52

33:                                               ; preds = %27
  call void @llvm.lifetime.start.p0(i64 4, ptr %6) #3
  %34 = load i32, ptr %3, align 4, !tbaa !74
  %35 = load i32, ptr %3, align 4, !tbaa !74
  %36 = call noundef zeroext i1 @_ZNK3sls7context7is_trueEj(ptr noundef nonnull align 8 dereferenceable(321) %9, i32 noundef %35)
  %37 = xor i1 %36, true
  call void @_ZN3sat7literalC2Ejb(ptr noundef nonnull align 4 dereferenceable(4) %6, i32 noundef %34, i1 noundef zeroext %37)
  call void @llvm.lifetime.start.p0(i64 8, ptr %7) #3
  %38 = getelementptr inbounds nuw %"class.sls::context", ptr %9, i32 0, i32 2
  %39 = load ptr, ptr %5, align 8, !tbaa !143
  %40 = call noundef i32 @_ZNK3sls7context7get_fidEP4expr(ptr noundef nonnull align 8 dereferenceable(321) %9, ptr noundef %39)
  %41 = call noundef ptr @_ZNK17scoped_ptr_vectorIN3sls6pluginEE3getEjPS1_(ptr noundef nonnull align 8 dereferenceable(8) %38, i32 noundef %40, ptr noundef null)
  store ptr %41, ptr %7, align 8, !tbaa !3
  %42 = load ptr, ptr %7, align 8, !tbaa !3
  %43 = icmp ne ptr %42, null
  br i1 %43, label %44, label %51

44:                                               ; preds = %33
  %45 = load ptr, ptr %7, align 8, !tbaa !3
  call void @llvm.memcpy.p0.p0.i64(ptr align 4 %8, ptr align 4 %6, i64 4, i1 false), !tbaa.struct !170
  %46 = getelementptr inbounds nuw %"class.sat::literal", ptr %8, i32 0, i32 0
  %47 = load i32, ptr %46, align 4
  %48 = load ptr, ptr %45, align 8, !tbaa !10
  %49 = getelementptr inbounds ptr, ptr %48, i64 10
  %50 = load ptr, ptr %49, align 8
  call void %50(ptr noundef nonnull align 8 dereferenceable(28) %45, i32 %47)
  br label %51

51:                                               ; preds = %44, %33
  call void @llvm.lifetime.end.p0(i64 8, ptr %7) #3
  call void @llvm.lifetime.end.p0(i64 4, ptr %6) #3
  store i32 0, ptr %4, align 4
  br label %52

52:                                               ; preds = %51, %32
  call void @llvm.lifetime.end.p0(i64 8, ptr %5) #3
  %53 = load i32, ptr %4, align 4
  switch i32 %53, label %59 [
    i32 0, label %54
    i32 4, label %55
  ]

54:                                               ; preds = %52
  br label %55

55:                                               ; preds = %54, %52
  %56 = load i32, ptr %3, align 4, !tbaa !74
  %57 = add i32 %56, 1
  store i32 %57, ptr %3, align 4, !tbaa !74
  br label %10, !llvm.loop !288

58:                                               ; preds = %26
  ret void

59:                                               ; preds = %52
  unreachable
}