; Function Attrs: mustprogress uwtable
define hidden void @_ZN3sls7context15repair_literalsEv(ptr noundef nonnull readonly align 8 captures(none) dereferenceable(321) %0) local_unnamed_addr #4 align 2 {
  %2 = getelementptr inbounds nuw i8, ptr %0, i64 8
  %3 = load ptr, ptr %2, align 8, !tbaa !148
  %4 = load ptr, ptr %3, align 8, !tbaa !3
  %5 = getelementptr inbounds nuw i8, ptr %4, i64 88
  %6 = load ptr, ptr %5, align 8
  %7 = tail call noundef i32 %6(ptr noundef nonnull align 8 dereferenceable(8) %3)
  %.not16 = icmp eq i32 %7, 0
  br i1 %.not16, label %.critedge, label %.lr.ph

.lr.ph:                                           ; preds = %1
  %8 = getelementptr inbounds nuw i8, ptr %0, i64 157
  %9 = getelementptr inbounds nuw i8, ptr %0, i64 80
  %10 = getelementptr inbounds nuw i8, ptr %0, i64 16
  br label %11

11:                                               ; preds = %.lr.ph, %_ZN3sls7context4atomEj.exit.thread
  %indvars.iv = phi i64 [ 0, %.lr.ph ], [ %indvars.iv.next, %_ZN3sls7context4atomEj.exit.thread ]
  %12 = load i8, ptr %8, align 1, !tbaa !149, !range !150, !noundef !151
  %13 = trunc nuw i8 %12 to i1
  br i1 %13, label %.critedge, label %14

.critedge:                                        ; preds = %11, %_ZN3sls7context4atomEj.exit.thread, %1
  ret void

14:                                               ; preds = %11
  %15 = load ptr, ptr %9, align 8, !tbaa !51
  %16 = icmp eq ptr %15, null
  br i1 %16, label %_ZN3sls7context4atomEj.exit.thread, label %_ZNK6vectorIP4exprLb0EjE3getEjRKS1_.exit.i.i

_ZNK6vectorIP4exprLb0EjE3getEjRKS1_.exit.i.i:     ; preds = %14
  %17 = getelementptr inbounds i8, ptr %15, i64 -4
  %18 = load i32, ptr %17, align 4, !tbaa !58
  %19 = zext i32 %18 to i64
  %.not.i.i.i = icmp samesign ult i64 %indvars.iv, %19
  br i1 %.not.i.i.i, label %_ZN3sls7context4atomEj.exit, label %_ZN3sls7context4atomEj.exit.thread

_ZN3sls7context4atomEj.exit:                      ; preds = %_ZNK6vectorIP4exprLb0EjE3getEjRKS1_.exit.i.i
  %20 = getelementptr inbounds nuw ptr, ptr %15, i64 %indvars.iv
  %.then.val.i.i = load ptr, ptr %20, align 8, !tbaa !61
  %.not = icmp eq ptr %.then.val.i.i, null
  br i1 %.not, label %_ZN3sls7context4atomEj.exit.thread, label %21

21:                                               ; preds = %_ZN3sls7context4atomEj.exit
  %22 = load ptr, ptr %2, align 8, !tbaa !148
  %23 = trunc nuw i64 %indvars.iv to i32
  %24 = shl i32 %23, 1
  %25 = load ptr, ptr %22, align 8, !tbaa !3
  %26 = getelementptr inbounds nuw i8, ptr %25, i64 80
  %27 = load ptr, ptr %26, align 8
  %28 = tail call noundef zeroext i1 %27(ptr noundef nonnull align 8 dereferenceable(8) %22, i32 %24)
  %29 = xor i1 %28, true
  %30 = zext i1 %29 to i32
  %31 = or disjoint i32 %24, %30
  %32 = tail call noundef i32 @_ZNK3sls7context7get_fidEP4expr(ptr noundef nonnull align 8 dereferenceable(321) %0, ptr noundef nonnull %.then.val.i.i)
  %33 = load ptr, ptr %10, align 8, !tbaa !49
  %34 = icmp eq ptr %33, null
  br i1 %34, label %_ZN3sls7context4atomEj.exit.thread, label %_ZNK6vectorIPN3sls6pluginELb0EjE4sizeEv.exit.i

_ZNK6vectorIPN3sls6pluginELb0EjE4sizeEv.exit.i:   ; preds = %21
  %35 = getelementptr inbounds i8, ptr %33, i64 -4
  %36 = load i32, ptr %35, align 4, !tbaa !58
  %37 = icmp ult i32 %32, %36
  br i1 %37, label %_ZNK17scoped_ptr_vectorIN3sls6pluginEE3getEjPS1_.exit, label %_ZN3sls7context4atomEj.exit.thread

_ZNK17scoped_ptr_vectorIN3sls6pluginEE3getEjPS1_.exit: ; preds = %_ZNK6vectorIPN3sls6pluginELb0EjE4sizeEv.exit.i
  %38 = zext i32 %32 to i64
  %39 = getelementptr inbounds nuw ptr, ptr %33, i64 %38
  %40 = load ptr, ptr %39, align 8, !tbaa !70
  %.not11 = icmp eq ptr %40, null
  br i1 %.not11, label %_ZN3sls7context4atomEj.exit.thread, label %41

41:                                               ; preds = %_ZNK17scoped_ptr_vectorIN3sls6pluginEE3getEjPS1_.exit
  %42 = load ptr, ptr %40, align 8, !tbaa !3
  %43 = getelementptr inbounds nuw i8, ptr %42, i64 80
  %44 = load ptr, ptr %43, align 8
  tail call void %44(ptr noundef nonnull align 8 dereferenceable(28) %40, i32 %31)
  br label %_ZN3sls7context4atomEj.exit.thread

_ZN3sls7context4atomEj.exit.thread:               ; preds = %21, %_ZNK6vectorIPN3sls6pluginELb0EjE4sizeEv.exit.i, %14, %_ZNK6vectorIP4exprLb0EjE3getEjRKS1_.exit.i.i, %_ZNK17scoped_ptr_vectorIN3sls6pluginEE3getEjPS1_.exit, %41, %_ZN3sls7context4atomEj.exit
  %indvars.iv.next = add nuw nsw i64 %indvars.iv, 1
  %45 = load ptr, ptr %2, align 8, !tbaa !148
  %46 = load ptr, ptr %45, align 8, !tbaa !3
  %47 = getelementptr inbounds nuw i8, ptr %46, i64 88
  %48 = load ptr, ptr %47, align 8
  %49 = tail call noundef i32 %48(ptr noundef nonnull align 8 dereferenceable(8) %45)
  %50 = zext i32 %49 to i64
  %51 = icmp samesign ult i64 %indvars.iv.next, %50
  br i1 %51, label %11, label %.critedge, !llvm.loop !261
}